; Function Attrs: nounwind uwtable
define dso_local range(i32 -1, 1) i32 @PyRun_SimpleFileEx(ptr noundef %0, ptr noundef %1, i32 noundef %2) local_unnamed_addr #0 {
  %4 = tail call ptr @PyUnicode_DecodeFSDefault(ptr noundef %1) #8
  %5 = icmp eq ptr %4, null
  br i1 %5, label %PyRun_SimpleFileExFlags.exit, label %6

6:                                                ; preds = %3
  %7 = tail call i32 @_PyRun_SimpleFileObject(ptr noundef %0, ptr noundef nonnull %4, i32 noundef %2, ptr noundef null)
  %8 = load i32, ptr %4, align 8, !tbaa !9
  %.not.i.i = icmp sgt i32 %8, -1
  br i1 %.not.i.i, label %9, label %PyRun_SimpleFileExFlags.exit

9:                                                ; preds = %6
  %10 = add nsw i32 %8, -1
  store i32 %10, ptr %4, align 8, !tbaa !9
  %11 = icmp eq i32 %10, 0
  br i1 %11, label %12, label %PyRun_SimpleFileExFlags.exit

12:                                               ; preds = %9
  tail call void @_Py_Dealloc(ptr noundef nonnull %4) #8
  br label %PyRun_SimpleFileExFlags.exit

PyRun_SimpleFileExFlags.exit:                     ; preds = %3, %6, %9, %12
  %.0.i = phi i32 [ -1, %3 ], [ %7, %6 ], [ %7, %9 ], [ %7, %12 ]
  ret i32 %.0.i
}